; Function Attrs: nounwind uwtable
define internal i32 @cw_chunked_write(ptr noundef %0, ptr noundef readonly captures(none) %1, i32 noundef %2, ptr noundef %3, i64 noundef %4) #0 {
  %6 = alloca i64, align 8
  %7 = getelementptr inbounds nuw i8, ptr %1, i64 16
  %8 = load ptr, ptr %7, align 8, !tbaa !88
  call void @llvm.lifetime.start.p0(i64 8, ptr nonnull %6) #8
  %9 = and i32 %2, 1
  %.not = icmp eq i32 %9, 0
  br i1 %.not, label %10, label %14

10:                                               ; preds = %5
  %11 = getelementptr inbounds nuw i8, ptr %1, i64 8
  %12 = load ptr, ptr %11, align 8, !tbaa !91
  %13 = tail call i32 @Curl_cwriter_write(ptr noundef %0, ptr noundef %12, i32 noundef %2, ptr noundef %3, i64 noundef %4) #8
  br label %59

14:                                               ; preds = %5
  %15 = getelementptr inbounds nuw i8, ptr %8, i64 32
  %16 = getelementptr inbounds nuw i8, ptr %1, i64 8
  %17 = load ptr, ptr %16, align 8, !tbaa !91
  %18 = call fastcc i32 @httpchunk_readwrite(ptr noundef %0, ptr noundef nonnull %15, ptr noundef %17, ptr noundef %3, i64 noundef %4, ptr noundef nonnull %6)
  %.not37 = icmp eq i32 %18, 0
  br i1 %.not37, label %28, label %19

19:                                               ; preds = %14
  %20 = getelementptr inbounds nuw i8, ptr %8, i64 44
  %21 = load i32, ptr %20, align 4, !tbaa !92
  switch i32 %21, label %Curl_chunked_strerror.exit [
    i32 6, label %22
    i32 1, label %23
    i32 2, label %24
    i32 3, label %25
    i32 5, label %27
    i32 4, label %26
  ]

22:                                               ; preds = %19
  tail call void (ptr, ptr, ...) @Curl_failf(ptr noundef %0, ptr noundef nonnull @.str.9) #8
  br label %59

23:                                               ; preds = %19
  br label %Curl_chunked_strerror.exit

24:                                               ; preds = %19
  br label %Curl_chunked_strerror.exit

25:                                               ; preds = %19
  br label %Curl_chunked_strerror.exit

26:                                               ; preds = %19
  br label %Curl_chunked_strerror.exit

27:                                               ; preds = %19
  br label %Curl_chunked_strerror.exit

Curl_chunked_strerror.exit:                       ; preds = %19, %23, %24, %25, %26, %27
  %.0.i = phi ptr [ @.str.19, %27 ], [ @.str.18, %26 ], [ @.str.16, %25 ], [ @.str.15, %24 ], [ @.str.14, %23 ], [ @.str.13, %19 ]
  tail call void (ptr, ptr, ...) @Curl_failf(ptr noundef %0, ptr noundef nonnull @.str.10, ptr noundef nonnull %.0.i) #8
  br label %59

28:                                               ; preds = %14
  %29 = load i64, ptr %6, align 8, !tbaa !15
  %30 = sub i64 %4, %29
  %31 = getelementptr inbounds nuw i8, ptr %8, i64 40
  %32 = load i32, ptr %31, align 8, !tbaa !94
  %33 = icmp eq i32 %32, 8
  br i1 %33, label %34, label %52

34:                                               ; preds = %28
  %35 = getelementptr inbounds nuw i8, ptr %0, i64 449
  %36 = load i32, ptr %35, align 1
  %37 = or i32 %36, 8
  store i32 %37, ptr %35, align 1
  %38 = icmp ne i64 %4, %29
  %39 = icmp ne ptr %0, null
  %or.cond = and i1 %39, %38
  br i1 %or.cond, label %40, label %59

40:                                               ; preds = %34
  %41 = getelementptr inbounds nuw i8, ptr %0, i64 2562
  %42 = load i64, ptr %41, align 2
  %43 = and i64 %42, 134217728
  %.not40 = icmp eq i64 %43, 0
  br i1 %.not40, label %59, label %44

44:                                               ; preds = %40
  %45 = getelementptr inbounds nuw i8, ptr %0, i64 4712
  %46 = load ptr, ptr %45, align 8, !tbaa !18
  %.not41 = icmp eq ptr %46, null
  br i1 %.not41, label %51, label %47

47:                                               ; preds = %44
  %48 = getelementptr inbounds nuw i8, ptr %46, i64 8
  %49 = load i32, ptr %48, align 8, !tbaa !84
  %50 = icmp sgt i32 %49, 0
  br i1 %50, label %51, label %59

51:                                               ; preds = %47, %44
  tail call void (ptr, ptr, ...) @Curl_infof(ptr noundef nonnull %0, ptr noundef nonnull @.str.11, i64 noundef %30) #8
  br label %59

52:                                               ; preds = %28
  %53 = and i32 %2, 128
  %.not38 = icmp eq i32 %53, 0
  br i1 %.not38, label %59, label %54

54:                                               ; preds = %52
  %55 = getelementptr inbounds nuw i8, ptr %0, i64 449
  %56 = load i32, ptr %55, align 1
  %57 = and i32 %56, 131072
  %.not39 = icmp eq i32 %57, 0
  br i1 %.not39, label %58, label %59

58:                                               ; preds = %54
  tail call void (ptr, ptr, ...) @Curl_failf(ptr noundef nonnull %0, ptr noundef nonnull @.str.12) #8
  br label %59

59:                                               ; preds = %40, %47, %51, %34, %54, %52, %22, %Curl_chunked_strerror.exit, %58, %10
  %.0 = phi i32 [ 18, %58 ], [ %13, %10 ], [ %18, %Curl_chunked_strerror.exit ], [ %18, %22 ], [ 0, %52 ], [ 0, %54 ], [ 0, %34 ], [ 0, %51 ], [ 0, %47 ], [ 0, %40 ]
  call void @llvm.lifetime.end.p0(i64 8, ptr nonnull %6) #8
  ret i32 %.0
}